target datalayout = "e-m:e-p270:32:32-p271:32:32-p272:64:64-i64:64-i128:128-f80:128-n8:16:32:64-S128"
target triple = "x86_64-pc-linux-gnu"

%struct.H5S_t = type { %struct.H5S_extent_t, %struct.H5S_select_t }
%struct.H5S_extent_t = type { %struct.H5O_shared_t, i32, i32, i64, i32, ptr, ptr }
%struct.H5O_shared_t = type { i32, ptr, i32, %union.anon }
%union.anon = type { %struct.H5O_mesg_loc_t }
%struct.H5O_mesg_loc_t = type { i32, i64 }
%struct.H5S_select_t = type { ptr, i8, [32 x i64], i64, %union.anon.0 }
%union.anon.0 = type { ptr }

@H5_libinit_g = external global i8, align 1
@H5_libterm_g = external global i8, align 1
@.str.1 = private unnamed_addr constant [103 x i8] c"generated/home/dtcxzyw/WorkSpace/Projects/compilers/llvm-opt-benchmark/bench/hdf5/hdf5/src/H5Sselect.c\00", align 1
@__func__.H5Soffset_simple = private unnamed_addr constant [17 x i8] c"H5Soffset_simple\00", align 1
@H5E_FUNC_g = external global i64, align 8
@H5E_CANTINIT_g = external global i64, align 8
@.str.2 = private unnamed_addr constant [30 x i8] c"library initialization failed\00", align 1
@H5E_CANTSET_g = external global i64, align 8
@.str.3 = private unnamed_addr constant [22 x i8] c"can't set API context\00", align 1
@H5E_DATASPACE_g = external global i64, align 8
@H5E_BADID_g = external global i64, align 8
@.str.4 = private unnamed_addr constant [16 x i8] c"not a dataspace\00", align 1
@H5E_UNSUPPORTED_g = external global i64, align 8
@.str.5 = private unnamed_addr constant [45 x i8] c"can't set offset on scalar or null dataspace\00", align 1
@.str.6 = private unnamed_addr constant [17 x i8] c"can't set offset\00", align 1

; Function Attrs: nounwind uwtable
define i32 @H5S_select_offset(ptr noundef %0, ptr noundef %1) #0 {
  %3 = alloca ptr, align 8
  %4 = alloca ptr, align 8
  store ptr %0, ptr %3, align 8
  store ptr %1, ptr %4, align 8
  %5 = load ptr, ptr %4, align 8
  %6 = icmp ne ptr %5, null
  br i1 %6, label %7, label %19

7:                                                ; preds = %2
  %8 = load ptr, ptr %3, align 8
  %9 = getelementptr inbounds %struct.H5S_t, ptr %8, i32 0, i32 1
  %10 = getelementptr inbounds %struct.H5S_select_t, ptr %9, i32 0, i32 2
  %11 = getelementptr inbounds [32 x i64], ptr %10, i64 0, i64 0
  %12 = load ptr, ptr %4, align 8
  %13 = load ptr, ptr %3, align 8
  %14 = getelementptr inbounds %struct.H5S_t, ptr %13, i32 0, i32 0
  %15 = getelementptr inbounds %struct.H5S_extent_t, ptr %14, i32 0, i32 4
  %16 = load i32, ptr %15, align 8
  %17 = zext i32 %16 to i64
  %18 = mul i64 8, %17
  call void @llvm.memcpy.p0.p0.i64(ptr align 8 %11, ptr align 8 %12, i64 %18, i1 false)
  br label %30

19:                                               ; preds = %2
  %20 = load ptr, ptr %3, align 8
  %21 = getelementptr inbounds %struct.H5S_t, ptr %20, i32 0, i32 1
  %22 = getelementptr inbounds %struct.H5S_select_t, ptr %21, i32 0, i32 2
  %23 = getelementptr inbounds [32 x i64], ptr %22, i64 0, i64 0
  %24 = load ptr, ptr %3, align 8
  %25 = getelementptr inbounds %struct.H5S_t, ptr %24, i32 0, i32 0
  %26 = getelementptr inbounds %struct.H5S_extent_t, ptr %25, i32 0, i32 4
  %27 = load i32, ptr %26, align 8
  %28 = zext i32 %27 to i64
  %29 = mul i64 8, %28
  call void @llvm.memset.p0.i64(ptr align 8 %23, i8 0, i64 %29, i1 false)
  br label %30

30:                                               ; preds = %19, %7
  %31 = load ptr, ptr %3, align 8
  %32 = getelementptr inbounds %struct.H5S_t, ptr %31, i32 0, i32 1
  %33 = getelementptr inbounds %struct.H5S_select_t, ptr %32, i32 0, i32 1
  store i8 1, ptr %33, align 8
  ret i32 0
}

; Function Attrs: nounwind uwtable
define i32 @H5Soffset_simple(i64 noundef %0, ptr noundef %1) #0 {
  %3 = alloca i64, align 8
  %4 = alloca ptr, align 8
  %5 = alloca ptr, align 8
  %6 = alloca i32, align 4
  %7 = alloca i8, align 1
  %8 = alloca i8, align 1
  store i64 %0, ptr %3, align 8
  store ptr %1, ptr %4, align 8
  store i32 0, ptr %6, align 4
  store i8 0, ptr %7, align 1
  store i8 0, ptr %8, align 1
  %9 = load i8, ptr @H5_libinit_g, align 1
  %10 = trunc i8 %9 to i1
  br i1 %10, label %15, label %11

11:                                               ; preds = %2
  %12 = load i8, ptr @H5_libterm_g, align 1
  %13 = trunc i8 %12 to i1
  %14 = xor i1 %13, true
  br label %15

15:                                               ; preds = %11, %2
  %16 = phi i1 [ false, %2 ], [ %14, %11 ]
  %17 = xor i1 %16, true
  %18 = xor i1 %17, true
  %19 = zext i1 %18 to i32
  %20 = sext i32 %19 to i64
  %21 = icmp ne i64 %20, 0
  br i1 %21, label %22, label %46

22:                                               ; preds = %15
  %23 = call i32 @H5_init_library()
  %24 = icmp slt i32 %23, 0
  %25 = xor i1 %24, true
  %26 = xor i1 %25, true
  %27 = zext i1 %26 to i32
  %28 = sext i32 %27 to i64
  %29 = icmp ne i64 %28, 0
  br i1 %29, label %30, label %45

30:                                               ; preds = %22
  br label %31

31:                                               ; preds = %30
  br label %32

32:                                               ; preds = %31
  br label %33

33:                                               ; preds = %32
  %34 = load i64, ptr @H5E_FUNC_g, align 8
  %35 = load i64, ptr @H5E_CANTINIT_g, align 8
  %36 = call i32 (ptr, ptr, i32, i64, i64, ptr, ...) @H5E_printf_stack(ptr noundef @.str.1, ptr noundef @__func__.H5Soffset_simple, i32 noundef 130, i64 noundef %34, i64 noundef %35, ptr noundef @.str.2)
  br label %37

37:                                               ; preds = %33
  store i8 1, ptr %8, align 1
  %38 = load i8, ptr %8, align 1
  %39 = trunc i8 %38 to i1
  %40 = zext i1 %39 to i8
  store i8 %40, ptr %8, align 1
  br label %41

41:                                               ; preds = %37
  br label %42

42:                                               ; preds = %41
  store i32 -1, ptr %6, align 4
  br label %144

43:                                               ; No predecessors!
  br label %44

44:                                               ; preds = %43
  br label %45

45:                                               ; preds = %44, %22
  br label %46

46:                                               ; preds = %45, %15
  %47 = call i32 @H5CX_push()
  %48 = icmp slt i32 %47, 0
  %49 = xor i1 %48, true
  %50 = xor i1 %49, true
  %51 = zext i1 %50 to i32
  %52 = sext i32 %51 to i64
  %53 = icmp ne i64 %52, 0
  br i1 %53, label %54, label %69

54:                                               ; preds = %46
  br label %55

55:                                               ; preds = %54
  br label %56

56:                                               ; preds = %55
  br label %57

57:                                               ; preds = %56
  %58 = load i64, ptr @H5E_FUNC_g, align 8
  %59 = load i64, ptr @H5E_CANTSET_g, align 8
  %60 = call i32 (ptr, ptr, i32, i64, i64, ptr, ...) @H5E_printf_stack(ptr noundef @.str.1, ptr noundef @__func__.H5Soffset_simple, i32 noundef 130, i64 noundef %58, i64 noundef %59, ptr noundef @.str.3)
  br label %61

61:                                               ; preds = %57
  store i8 1, ptr %8, align 1
  %62 = load i8, ptr %8, align 1
  %63 = trunc i8 %62 to i1
  %64 = zext i1 %63 to i8
  store i8 %64, ptr %8, align 1
  br label %65

65:                                               ; preds = %61
  br label %66

66:                                               ; preds = %65
  store i32 -1, ptr %6, align 4
  br label %144

67:                                               ; No predecessors!
  br label %68

68:                                               ; preds = %67
  br label %70

69:                                               ; preds = %46
  store i8 1, ptr %7, align 1
  br label %70

70:                                               ; preds = %69, %68
  %71 = call i32 @H5E_clear_stack()
  %72 = load i64, ptr %3, align 8
  %73 = call ptr @H5I_object_verify(i64 noundef %72, i32 noundef 4)
  store ptr %73, ptr %5, align 8
  %74 = icmp eq ptr null, %73
  br i1 %74, label %75, label %90

75:                                               ; preds = %70
  br label %76

76:                                               ; preds = %75
  br label %77

77:                                               ; preds = %76
  br label %78

78:                                               ; preds = %77
  %79 = load i64, ptr @H5E_DATASPACE_g, align 8
  %80 = load i64, ptr @H5E_BADID_g, align 8
  %81 = call i32 (ptr, ptr, i32, i64, i64, ptr, ...) @H5E_printf_stack(ptr noundef @.str.1, ptr noundef @__func__.H5Soffset_simple, i32 noundef 134, i64 noundef %79, i64 noundef %80, ptr noundef @.str.4)
  br label %82

82:                                               ; preds = %78
  store i8 1, ptr %8, align 1
  %83 = load i8, ptr %8, align 1
  %84 = trunc i8 %83 to i1
  %85 = zext i1 %84 to i8
  store i8 %85, ptr %8, align 1
  br label %86

86:                                               ; preds = %82
  br label %87

87:                                               ; preds = %86
  store i32 -1, ptr %6, align 4
  br label %144

88:                                               ; No predecessors!
  br label %89

89:                                               ; preds = %88
  br label %90

90:                                               ; preds = %89, %70
  %91 = load ptr, ptr %5, align 8
  %92 = getelementptr inbounds %struct.H5S_t, ptr %91, i32 0, i32 0
  %93 = getelementptr inbounds %struct.H5S_extent_t, ptr %92, i32 0, i32 4
  %94 = load i32, ptr %93, align 8
  %95 = icmp eq i32 %94, 0
  br i1 %95, label %108, label %96

96:                                               ; preds = %90
  %97 = load ptr, ptr %5, align 8
  %98 = getelementptr inbounds %struct.H5S_t, ptr %97, i32 0, i32 0
  %99 = getelementptr inbounds %struct.H5S_extent_t, ptr %98, i32 0, i32 1
  %100 = load i32, ptr %99, align 8
  %101 = icmp eq i32 %100, 0
  br i1 %101, label %108, label %102

102:                                              ; preds = %96
  %103 = load ptr, ptr %5, align 8
  %104 = getelementptr inbounds %struct.H5S_t, ptr %103, i32 0, i32 0
  %105 = getelementptr inbounds %struct.H5S_extent_t, ptr %104, i32 0, i32 1
  %106 = load i32, ptr %105, align 8
  %107 = icmp eq i32 %106, 2
  br i1 %107, label %108, label %123

108:                                              ; preds = %102, %96, %90
  br label %109

109:                                              ; preds = %108
  br label %110

110:                                              ; preds = %109
  br label %111

111:                                              ; preds = %110
  %112 = load i64, ptr @H5E_DATASPACE_g, align 8
  %113 = load i64, ptr @H5E_UNSUPPORTED_g, align 8
  %114 = call i32 (ptr, ptr, i32, i64, i64, ptr, ...) @H5E_printf_stack(ptr noundef @.str.1, ptr noundef @__func__.H5Soffset_simple, i32 noundef 137, i64 noundef %112, i64 noundef %113, ptr noundef @.str.5)
  br label %115

115:                                              ; preds = %111
  store i8 1, ptr %8, align 1
  %116 = load i8, ptr %8, align 1
  %117 = trunc i8 %116 to i1
  %118 = zext i1 %117 to i8
  store i8 %118, ptr %8, align 1
  br label %119

119:                                              ; preds = %115
  br label %120

120:                                              ; preds = %119
  store i32 -1, ptr %6, align 4
  br label %144

121:                                              ; No predecessors!
  br label %122

122:                                              ; preds = %121
  br label %123

123:                                              ; preds = %122, %102
  %124 = load ptr, ptr %5, align 8
  %125 = load ptr, ptr %4, align 8
  %126 = call i32 @H5S_select_offset(ptr noundef %124, ptr noundef %125)
  %127 = icmp slt i32 %126, 0
  br i1 %127, label %128, label %143

128:                                              ; preds = %123
  br label %129

129:                                              ; preds = %128
  br label %130

130:                                              ; preds = %129
  br label %131

131:                                              ; preds = %130
  %132 = load i64, ptr @H5E_DATASPACE_g, align 8
  %133 = load i64, ptr @H5E_CANTINIT_g, align 8
  %134 = call i32 (ptr, ptr, i32, i64, i64, ptr, ...) @H5E_printf_stack(ptr noundef @.str.1, ptr noundef @__func__.H5Soffset_simple, i32 noundef 143, i64 noundef %132, i64 noundef %133, ptr noundef @.str.6)
  br label %135

135:                                              ; preds = %131
  store i8 1, ptr %8, align 1
  %136 = load i8, ptr %8, align 1
  %137 = trunc i8 %136 to i1
  %138 = zext i1 %137 to i8
  store i8 %138, ptr %8, align 1
  br label %139

139:                                              ; preds = %135
  br label %140

140:                                              ; preds = %139
  store i32 -1, ptr %6, align 4
  br label %144

141:                                              ; No predecessors!
  br label %142

142:                                              ; preds = %141
  br label %143

143:                                              ; preds = %142, %123
  br label %144

144:                                              ; preds = %143, %140, %120, %87, %66, %42
  %145 = load i8, ptr %7, align 1
  %146 = trunc i8 %145 to i1
  %147 = xor i1 %146, true
  %148 = xor i1 %147, true
  %149 = zext i1 %148 to i32
  %150 = sext i32 %149 to i64
  %151 = icmp ne i64 %150, 0
  br i1 %151, label %152, label %154

152:                                              ; preds = %144
  %153 = call i32 @H5CX_pop(i1 noundef zeroext true)
  store i8 0, ptr %7, align 1
  br label %154

154:                                              ; preds = %152, %144
  %155 = load i8, ptr %8, align 1
  %156 = trunc i8 %155 to i1
  %157 = xor i1 %156, true
  %158 = xor i1 %157, true
  %159 = zext i1 %158 to i32
  %160 = sext i32 %159 to i64
  %161 = icmp ne i64 %160, 0
  br i1 %161, label %162, label %164

162:                                              ; preds = %154
  %163 = call i32 @H5E_dump_api_stack()
  br label %164

164:                                              ; preds = %162, %154
  %165 = load i32, ptr %6, align 4
  ret i32 %165
}