; Function Attrs: nounwind uwtable
define range(i32 -1, 1) i32 @H5Soffset_simple(i64 noundef %0, ptr noundef readonly %1) local_unnamed_addr #3 {
  %3 = load i8, ptr @H5_libinit_g, align 1
  %4 = trunc i8 %3 to i1
  %5 = load i8, ptr @H5_libterm_g, align 1
  %6 = trunc i8 %5 to i1
  %7 = select i1 %4, i1 true, i1 %6
  br i1 %7, label %15, label %8

8:                                                ; preds = %2
  %9 = tail call i32 @H5_init_library() #7
  %10 = icmp slt i32 %9, 0
  br i1 %10, label %11, label %15

11:                                               ; preds = %8
  %12 = load i64, ptr @H5E_FUNC_g, align 8
  %13 = load i64, ptr @H5E_CANTINIT_g, align 8
  %14 = tail call i32 (ptr, ptr, i32, i64, i64, ptr, ...) @H5E_printf_stack(ptr noundef nonnull @.str.1, ptr noundef nonnull @__func__.H5Soffset_simple, i32 noundef 130, i64 noundef %12, i64 noundef %13, ptr noundef nonnull @.str.2) #7
  br label %.thread25

15:                                               ; preds = %8, %2
  %16 = tail call i32 @H5CX_push() #7
  %17 = icmp slt i32 %16, 0
  br i1 %17, label %18, label %22

18:                                               ; preds = %15
  %19 = load i64, ptr @H5E_FUNC_g, align 8
  %20 = load i64, ptr @H5E_CANTSET_g, align 8
  %21 = tail call i32 (ptr, ptr, i32, i64, i64, ptr, ...) @H5E_printf_stack(ptr noundef nonnull @.str.1, ptr noundef nonnull @__func__.H5Soffset_simple, i32 noundef 130, i64 noundef %19, i64 noundef %20, ptr noundef nonnull @.str.3) #7
  br label %.thread25

22:                                               ; preds = %15
  %23 = tail call i32 @H5E_clear_stack() #7
  %24 = tail call ptr @H5I_object_verify(i64 noundef %0, i32 noundef 4) #7
  %25 = icmp eq ptr %24, null
  br i1 %25, label %26, label %30

26:                                               ; preds = %22
  %27 = load i64, ptr @H5E_DATASPACE_g, align 8
  %28 = load i64, ptr @H5E_BADID_g, align 8
  %29 = tail call i32 (ptr, ptr, i32, i64, i64, ptr, ...) @H5E_printf_stack(ptr noundef nonnull @.str.1, ptr noundef nonnull @__func__.H5Soffset_simple, i32 noundef 134, i64 noundef %27, i64 noundef %28, ptr noundef nonnull @.str.4) #7
  br label %.thread31

30:                                               ; preds = %22
  %31 = getelementptr inbounds i8, ptr %24, i64 56
  %32 = load i32, ptr %31, align 8
  %33 = icmp eq i32 %32, 0
  br i1 %33, label %37, label %34

34:                                               ; preds = %30
  %35 = getelementptr inbounds i8, ptr %24, i64 40
  %36 = load i32, ptr %35, align 8
  switch i32 %36, label %41 [
    i32 0, label %37
    i32 2, label %37
  ]

37:                                               ; preds = %34, %34, %30
  %38 = load i64, ptr @H5E_DATASPACE_g, align 8
  %39 = load i64, ptr @H5E_UNSUPPORTED_g, align 8
  %40 = tail call i32 (ptr, ptr, i32, i64, i64, ptr, ...) @H5E_printf_stack(ptr noundef nonnull @.str.1, ptr noundef nonnull @__func__.H5Soffset_simple, i32 noundef 137, i64 noundef %38, i64 noundef %39, ptr noundef nonnull @.str.5) #7
  br label %.thread31

41:                                               ; preds = %34
  %.not.i = icmp eq ptr %1, null
  %42 = getelementptr inbounds i8, ptr %24, i64 96
  %43 = zext i32 %32 to i64
  %44 = shl nuw nsw i64 %43, 3
  br i1 %.not.i, label %46, label %45

45:                                               ; preds = %41
  tail call void @llvm.memcpy.p0.p0.i64(ptr nonnull align 8 %42, ptr nonnull readonly align 8 %1, i64 %44, i1 false)
  br label %48

46:                                               ; preds = %41
  tail call void @llvm.memset.p0.i64(ptr nonnull align 8 %42, i8 0, i64 %44, i1 false)
  br label %48

.thread31:                                        ; preds = %37, %26
  %47 = tail call i32 @H5CX_pop(i1 noundef zeroext true) #7
  br label %.thread25

48:                                               ; preds = %46, %45
  %49 = getelementptr inbounds i8, ptr %24, i64 88
  store i8 1, ptr %49, align 8
  %50 = tail call i32 @H5CX_pop(i1 noundef zeroext true) #7
  br label %52

.thread25:                                        ; preds = %18, %11, %.thread31
  %51 = tail call i32 @H5E_dump_api_stack() #7
  br label %52

52:                                               ; preds = %48, %.thread25
  %.0142028 = phi i32 [ -1, %.thread25 ], [ 0, %48 ]
  ret i32 %.0142028
}